target datalayout = "e-m:e-p270:32:32-p271:32:32-p272:64:64-i64:64-i128:128-f80:128-n8:16:32:64-S128"
target triple = "x86_64-pc-linux-gnu"

%struct.lv_point_t = type { i32, i32 }

; Function Attrs: nounwind uwtable
define void @lv_text_encoded_letter_next_2(ptr noundef %0, ptr noundef %1, ptr noundef %2, ptr noundef %3) #0 {
  %5 = alloca ptr, align 8
  %6 = alloca ptr, align 8
  %7 = alloca ptr, align 8
  %8 = alloca ptr, align 8
  store ptr %0, ptr %5, align 8, !tbaa !3
  store ptr %1, ptr %6, align 8, !tbaa !3
  store ptr %2, ptr %7, align 8, !tbaa !3
  store ptr %3, ptr %8, align 8, !tbaa !3
  %9 = load ptr, ptr %5, align 8, !tbaa !3
  %10 = load ptr, ptr %8, align 8, !tbaa !3
  %11 = call i32 @lv_text_utf8_next(ptr noundef %9, ptr noundef %10)
  %12 = load ptr, ptr %6, align 8, !tbaa !3
  store i32 %11, ptr %12, align 4, !tbaa !8
  %13 = load ptr, ptr %6, align 8, !tbaa !3
  %14 = load i32, ptr %13, align 4, !tbaa !8
  %15 = icmp ne i32 %14, 0
  br i1 %15, label %16, label %23

16:                                               ; preds = %4
  %17 = load ptr, ptr %5, align 8, !tbaa !3
  %18 = load ptr, ptr %8, align 8, !tbaa !3
  %19 = load i32, ptr %18, align 4, !tbaa !8
  %20 = zext i32 %19 to i64
  %21 = getelementptr inbounds nuw i8, ptr %17, i64 %20
  %22 = call i32 @lv_text_utf8_next(ptr noundef %21, ptr noundef null)
  br label %24

23:                                               ; preds = %4
  br label %24

24:                                               ; preds = %23, %16
  %25 = phi i32 [ %22, %16 ], [ 0, %23 ]
  %26 = load ptr, ptr %7, align 8, !tbaa !3
  store i32 %25, ptr %26, align 4, !tbaa !8
  ret void
}

; Function Attrs: nounwind uwtable
define i32 @lv_text_get_width(ptr noundef %0, i32 noundef %1, ptr noundef %2, i32 noundef %3) #0 {
  %5 = alloca i32, align 4
  %6 = alloca ptr, align 8
  %7 = alloca i32, align 4
  %8 = alloca ptr, align 8
  %9 = alloca i32, align 4
  %10 = alloca i32, align 4
  %11 = alloca i32, align 4
  %12 = alloca i32, align 4
  %13 = alloca i32, align 4
  %14 = alloca i32, align 4
  store ptr %0, ptr %6, align 8, !tbaa !3
  store i32 %1, ptr %7, align 4, !tbaa !8
  store ptr %2, ptr %8, align 8, !tbaa !3
  store i32 %3, ptr %9, align 4, !tbaa !8
  %15 = load ptr, ptr %6, align 8, !tbaa !3
  %16 = icmp eq ptr %15, null
  br i1 %16, label %17, label %18

17:                                               ; preds = %4
  store i32 0, ptr %5, align 4
  br label %64

18:                                               ; preds = %4
  %19 = load ptr, ptr %8, align 8, !tbaa !3
  %20 = icmp eq ptr %19, null
  br i1 %20, label %21, label %22

21:                                               ; preds = %18
  store i32 0, ptr %5, align 4
  br label %64

22:                                               ; preds = %18
  %23 = load ptr, ptr %6, align 8, !tbaa !3
  %24 = getelementptr inbounds i8, ptr %23, i64 0
  %25 = load i8, ptr %24, align 1, !tbaa !7
  %26 = sext i8 %25 to i32
  %27 = icmp eq i32 %26, 0
  br i1 %27, label %28, label %29

28:                                               ; preds = %22
  store i32 0, ptr %5, align 4
  br label %64

29:                                               ; preds = %22
  call void @llvm.lifetime.start.p0(i64 4, ptr %10) #5
  store i32 0, ptr %10, align 4, !tbaa !8
  call void @llvm.lifetime.start.p0(i64 4, ptr %11) #5
  store i32 0, ptr %11, align 4, !tbaa !8
  %30 = load i32, ptr %7, align 4, !tbaa !8
  %31 = icmp ne i32 %30, 0
  br i1 %31, label %32, label %62

32:                                               ; preds = %29
  br label %33

33:                                               ; preds = %53, %32
  %34 = load i32, ptr %10, align 4, !tbaa !8
  %35 = load i32, ptr %7, align 4, !tbaa !8
  %36 = icmp ult i32 %34, %35
  br i1 %36, label %37, label %54

37:                                               ; preds = %33
  call void @llvm.lifetime.start.p0(i64 4, ptr %12) #5
  call void @llvm.lifetime.start.p0(i64 4, ptr %13) #5
  %38 = load ptr, ptr %6, align 8, !tbaa !3
  call void @lv_text_encoded_letter_next_2(ptr noundef %38, ptr noundef %12, ptr noundef %13, ptr noundef %10)
  call void @llvm.lifetime.start.p0(i64 4, ptr %14) #5
  %39 = load ptr, ptr %8, align 8, !tbaa !3
  %40 = load i32, ptr %12, align 4, !tbaa !8
  %41 = load i32, ptr %13, align 4, !tbaa !8
  %42 = call zeroext i16 @lv_font_get_glyph_width(ptr noundef %39, i32 noundef %40, i32 noundef %41)
  %43 = zext i16 %42 to i32
  store i32 %43, ptr %14, align 4, !tbaa !8
  %44 = load i32, ptr %14, align 4, !tbaa !8
  %45 = icmp sgt i32 %44, 0
  br i1 %45, label %46, label %53

46:                                               ; preds = %37
  %47 = load i32, ptr %14, align 4, !tbaa !8
  %48 = load i32, ptr %11, align 4, !tbaa !8
  %49 = add nsw i32 %48, %47
  store i32 %49, ptr %11, align 4, !tbaa !8
  %50 = load i32, ptr %9, align 4, !tbaa !8
  %51 = load i32, ptr %11, align 4, !tbaa !8
  %52 = add nsw i32 %51, %50
  store i32 %52, ptr %11, align 4, !tbaa !8
  br label %53

53:                                               ; preds = %46, %37
  call void @llvm.lifetime.end.p0(i64 4, ptr %14) #5
  call void @llvm.lifetime.end.p0(i64 4, ptr %13) #5
  call void @llvm.lifetime.end.p0(i64 4, ptr %12) #5
  br label %33, !llvm.loop !24

54:                                               ; preds = %33
  %55 = load i32, ptr %11, align 4, !tbaa !8
  %56 = icmp sgt i32 %55, 0
  br i1 %56, label %57, label %61

57:                                               ; preds = %54
  %58 = load i32, ptr %9, align 4, !tbaa !8
  %59 = load i32, ptr %11, align 4, !tbaa !8
  %60 = sub nsw i32 %59, %58
  store i32 %60, ptr %11, align 4, !tbaa !8
  br label %61

61:                                               ; preds = %57, %54
  br label %62

62:                                               ; preds = %61, %29
  %63 = load i32, ptr %11, align 4, !tbaa !8
  store i32 %63, ptr %5, align 4
  call void @llvm.lifetime.end.p0(i64 4, ptr %11) #5
  call void @llvm.lifetime.end.p0(i64 4, ptr %10) #5
  br label %64

64:                                               ; preds = %62, %28, %21, %17
  %65 = load i32, ptr %5, align 4
  ret i32 %65
}

; Function Attrs: nounwind uwtable
define void @lv_text_get_size(ptr noundef %0, ptr noundef %1, ptr noundef %2, i32 noundef %3, i32 noundef %4, i32 noundef %5, i32 noundef %6) #0 {
  %8 = alloca ptr, align 8
  %9 = alloca ptr, align 8
  %10 = alloca ptr, align 8
  %11 = alloca i32, align 4
  %12 = alloca i32, align 4
  %13 = alloca i32, align 4
  %14 = alloca i32, align 4
  %15 = alloca i32, align 4
  %16 = alloca i32, align 4
  %17 = alloca i16, align 2
  %18 = alloca i32, align 4
  %19 = alloca i32, align 4
  store ptr %0, ptr %8, align 8, !tbaa !3
  store ptr %1, ptr %9, align 8, !tbaa !3
  store ptr %2, ptr %10, align 8, !tbaa !3
  store i32 %3, ptr %11, align 4, !tbaa !8
  store i32 %4, ptr %12, align 4, !tbaa !8
  store i32 %5, ptr %13, align 4, !tbaa !8
  store i32 %6, ptr %14, align 4, !tbaa !8
  %20 = load ptr, ptr %8, align 8, !tbaa !3
  %21 = getelementptr inbounds nuw %struct.lv_point_t, ptr %20, i32 0, i32 0
  store i32 0, ptr %21, align 4, !tbaa !16
  %22 = load ptr, ptr %8, align 8, !tbaa !3
  %23 = getelementptr inbounds nuw %struct.lv_point_t, ptr %22, i32 0, i32 1
  store i32 0, ptr %23, align 4, !tbaa !18
  %24 = load ptr, ptr %9, align 8, !tbaa !3
  %25 = icmp eq ptr %24, null
  br i1 %25, label %26, label %27

26:                                               ; preds = %7
  br label %163

27:                                               ; preds = %7
  %28 = load ptr, ptr %10, align 8, !tbaa !3
  %29 = icmp eq ptr %28, null
  br i1 %29, label %30, label %31

30:                                               ; preds = %27
  br label %163

31:                                               ; preds = %27
  %32 = load i32, ptr %14, align 4, !tbaa !8
  %33 = and i32 %32, 1
  %34 = icmp ne i32 %33, 0
  br i1 %34, label %35, label %36

35:                                               ; preds = %31
  store i32 536870911, ptr %13, align 4, !tbaa !8
  br label %36

36:                                               ; preds = %35, %31
  call void @llvm.lifetime.start.p0(i64 4, ptr %15) #5
  store i32 0, ptr %15, align 4, !tbaa !8
  call void @llvm.lifetime.start.p0(i64 4, ptr %16) #5
  store i32 0, ptr %16, align 4, !tbaa !8
  call void @llvm.lifetime.start.p0(i64 2, ptr %17) #5
  %37 = load ptr, ptr %10, align 8, !tbaa !3
  %38 = call i32 @lv_font_get_line_height(ptr noundef %37)
  %39 = trunc i32 %38 to i16
  store i16 %39, ptr %17, align 2, !tbaa !19
  br label %40

40:                                               ; preds = %109, %36
  %41 = load ptr, ptr %9, align 8, !tbaa !3
  %42 = load i32, ptr %15, align 4, !tbaa !8
  %43 = zext i32 %42 to i64
  %44 = getelementptr inbounds nuw i8, ptr %41, i64 %43
  %45 = load i8, ptr %44, align 1, !tbaa !7
  %46 = sext i8 %45 to i32
  %47 = icmp ne i32 %46, 0
  br i1 %47, label %48, label %114

48:                                               ; preds = %40
  %49 = load ptr, ptr %9, align 8, !tbaa !3
  %50 = load i32, ptr %15, align 4, !tbaa !8
  %51 = zext i32 %50 to i64
  %52 = getelementptr inbounds nuw i8, ptr %49, i64 %51
  %53 = load ptr, ptr %10, align 8, !tbaa !3
  %54 = load i32, ptr %11, align 4, !tbaa !8
  %55 = load i32, ptr %13, align 4, !tbaa !8
  %56 = load i32, ptr %14, align 4, !tbaa !8
  %57 = call i32 @lv_text_get_next_line(ptr noundef %52, ptr noundef %53, i32 noundef %54, i32 noundef %55, ptr noundef null, i32 noundef %56)
  %58 = load i32, ptr %16, align 4, !tbaa !8
  %59 = add i32 %58, %57
  store i32 %59, ptr %16, align 4, !tbaa !8
  %60 = load ptr, ptr %8, align 8, !tbaa !3
  %61 = getelementptr inbounds nuw %struct.lv_point_t, ptr %60, i32 0, i32 1
  %62 = load i32, ptr %61, align 4, !tbaa !18
  %63 = sext i32 %62 to i64
  %64 = load i16, ptr %17, align 2, !tbaa !19
  %65 = zext i16 %64 to i64
  %66 = add i64 %63, %65
  %67 = load i32, ptr %12, align 4, !tbaa !8
  %68 = sext i32 %67 to i64
  %69 = add i64 %66, %68
  %70 = icmp ugt i64 %69, 2147483647
  br i1 %70, label %71, label %75

71:                                               ; preds = %48
  br label %72

72:                                               ; preds = %71
  br label %73

73:                                               ; preds = %72
  br label %74

74:                                               ; preds = %73
  store i32 1, ptr %18, align 4
  br label %161

75:                                               ; preds = %48
  %76 = load i16, ptr %17, align 2, !tbaa !19
  %77 = zext i16 %76 to i32
  %78 = load ptr, ptr %8, align 8, !tbaa !3
  %79 = getelementptr inbounds nuw %struct.lv_point_t, ptr %78, i32 0, i32 1
  %80 = load i32, ptr %79, align 4, !tbaa !18
  %81 = add nsw i32 %80, %77
  store i32 %81, ptr %79, align 4, !tbaa !18
  %82 = load i32, ptr %12, align 4, !tbaa !8
  %83 = load ptr, ptr %8, align 8, !tbaa !3
  %84 = getelementptr inbounds nuw %struct.lv_point_t, ptr %83, i32 0, i32 1
  %85 = load i32, ptr %84, align 4, !tbaa !18
  %86 = add nsw i32 %85, %82
  store i32 %86, ptr %84, align 4, !tbaa !18
  br label %87

87:                                               ; preds = %75
  call void @llvm.lifetime.start.p0(i64 4, ptr %19) #5
  %88 = load ptr, ptr %9, align 8, !tbaa !3
  %89 = load i32, ptr %15, align 4, !tbaa !8
  %90 = zext i32 %89 to i64
  %91 = getelementptr inbounds nuw i8, ptr %88, i64 %90
  %92 = load i32, ptr %16, align 4, !tbaa !8
  %93 = load i32, ptr %15, align 4, !tbaa !8
  %94 = sub i32 %92, %93
  %95 = load ptr, ptr %10, align 8, !tbaa !3
  %96 = load i32, ptr %11, align 4, !tbaa !8
  %97 = call i32 @lv_text_get_width(ptr noundef %91, i32 noundef %94, ptr noundef %95, i32 noundef %96)
  store i32 %97, ptr %19, align 4, !tbaa !8
  %98 = load i32, ptr %19, align 4, !tbaa !8
  %99 = load ptr, ptr %8, align 8, !tbaa !3
  %100 = getelementptr inbounds nuw %struct.lv_point_t, ptr %99, i32 0, i32 0
  %101 = load i32, ptr %100, align 4, !tbaa !16
  %102 = icmp sgt i32 %98, %101
  br i1 %102, label %103, label %105

103:                                              ; preds = %87
  %104 = load i32, ptr %19, align 4, !tbaa !8
  br label %109

105:                                              ; preds = %87
  %106 = load ptr, ptr %8, align 8, !tbaa !3
  %107 = getelementptr inbounds nuw %struct.lv_point_t, ptr %106, i32 0, i32 0
  %108 = load i32, ptr %107, align 4, !tbaa !16
  br label %109

109:                                              ; preds = %105, %103
  %110 = phi i32 [ %104, %103 ], [ %108, %105 ]
  %111 = load ptr, ptr %8, align 8, !tbaa !3
  %112 = getelementptr inbounds nuw %struct.lv_point_t, ptr %111, i32 0, i32 0
  store i32 %110, ptr %112, align 4, !tbaa !16
  %113 = load i32, ptr %16, align 4, !tbaa !8
  store i32 %113, ptr %15, align 4, !tbaa !8
  call void @llvm.lifetime.end.p0(i64 4, ptr %19) #5
  br label %40, !llvm.loop !21

114:                                              ; preds = %40
  %115 = load i32, ptr %15, align 4, !tbaa !8
  %116 = icmp ne i32 %115, 0
  br i1 %116, label %117, label %144

117:                                              ; preds = %114
  %118 = load ptr, ptr %9, align 8, !tbaa !3
  %119 = load i32, ptr %15, align 4, !tbaa !8
  %120 = sub i32 %119, 1
  %121 = zext i32 %120 to i64
  %122 = getelementptr inbounds nuw i8, ptr %118, i64 %121
  %123 = load i8, ptr %122, align 1, !tbaa !7
  %124 = sext i8 %123 to i32
  %125 = icmp eq i32 %124, 10
  br i1 %125, label %135, label %126

126:                                              ; preds = %117
  %127 = load ptr, ptr %9, align 8, !tbaa !3
  %128 = load i32, ptr %15, align 4, !tbaa !8
  %129 = sub i32 %128, 1
  %130 = zext i32 %129 to i64
  %131 = getelementptr inbounds nuw i8, ptr %127, i64 %130
  %132 = load i8, ptr %131, align 1, !tbaa !7
  %133 = sext i8 %132 to i32
  %134 = icmp eq i32 %133, 13
  br i1 %134, label %135, label %144

135:                                              ; preds = %126, %117
  %136 = load i16, ptr %17, align 2, !tbaa !19
  %137 = zext i16 %136 to i32
  %138 = load i32, ptr %12, align 4, !tbaa !8
  %139 = add nsw i32 %137, %138
  %140 = load ptr, ptr %8, align 8, !tbaa !3
  %141 = getelementptr inbounds nuw %struct.lv_point_t, ptr %140, i32 0, i32 1
  %142 = load i32, ptr %141, align 4, !tbaa !18
  %143 = add nsw i32 %142, %139
  store i32 %143, ptr %141, align 4, !tbaa !18
  br label %144

144:                                              ; preds = %135, %126, %114
  %145 = load ptr, ptr %8, align 8, !tbaa !3
  %146 = getelementptr inbounds nuw %struct.lv_point_t, ptr %145, i32 0, i32 1
  %147 = load i32, ptr %146, align 4, !tbaa !18
  %148 = icmp eq i32 %147, 0
  br i1 %148, label %149, label %154

149:                                              ; preds = %144
  %150 = load i16, ptr %17, align 2, !tbaa !19
  %151 = zext i16 %150 to i32
  %152 = load ptr, ptr %8, align 8, !tbaa !3
  %153 = getelementptr inbounds nuw %struct.lv_point_t, ptr %152, i32 0, i32 1
  store i32 %151, ptr %153, align 4, !tbaa !18
  br label %160

154:                                              ; preds = %144
  %155 = load i32, ptr %12, align 4, !tbaa !8
  %156 = load ptr, ptr %8, align 8, !tbaa !3
  %157 = getelementptr inbounds nuw %struct.lv_point_t, ptr %156, i32 0, i32 1
  %158 = load i32, ptr %157, align 4, !tbaa !18
  %159 = sub nsw i32 %158, %155
  store i32 %159, ptr %157, align 4, !tbaa !18
  br label %160

160:                                              ; preds = %154, %149
  store i32 0, ptr %18, align 4
  br label %161

161:                                              ; preds = %160, %74
  call void @llvm.lifetime.end.p0(i64 2, ptr %17) #5
  call void @llvm.lifetime.end.p0(i64 4, ptr %16) #5
  call void @llvm.lifetime.end.p0(i64 4, ptr %15) #5
  %162 = load i32, ptr %18, align 4
  switch i32 %162, label %164 [
    i32 0, label %163
    i32 1, label %163
  ]

163:                                              ; preds = %26, %30, %161, %161
  ret void

164:                                              ; preds = %161
  unreachable
}