; Function Attrs: nounwind uwtable
define void @lv_text_get_size(ptr nocapture noundef %0, ptr noundef %1, ptr noundef %2, i32 noundef %3, i32 noundef %4, i32 noundef %5, i32 noundef %6) local_unnamed_addr #2 {
  %8 = alloca i32, align 4
  store i32 0, ptr %0, align 4, !tbaa !14
  %9 = getelementptr inbounds nuw i8, ptr %0, i64 4
  store i32 0, ptr %9, align 4, !tbaa !16
  %10 = icmp eq ptr %1, null
  %11 = icmp eq ptr %2, null
  %or.cond = or i1 %10, %11
  br i1 %or.cond, label %.loopexit, label %12

12:                                               ; preds = %7
  %13 = and i32 %6, 1
  %.not = icmp eq i32 %13, 0
  %spec.select = select i1 %.not, i32 %5, i32 536870911
  %14 = tail call i32 @lv_font_get_line_height(ptr noundef nonnull %2) #11
  %15 = load i8, ptr %1, align 1, !tbaa !3
  %.not5558 = icmp eq i8 %15, 0
  br i1 %.not5558, label %._crit_edge.thread, label %.lr.ph

.lr.ph:                                           ; preds = %12
  %.mask = and i32 %14, 65535
  %16 = zext nneg i32 %.mask to i64
  %17 = sext i32 %4 to i64
  %18 = add nsw i64 %16, %17
  %19 = add i32 %.mask, %4
  br label %20

20:                                               ; preds = %.lr.ph, %lv_text_get_width.exit
  %21 = phi ptr [ %1, %.lr.ph ], [ %51, %lv_text_get_width.exit ]
  %.04759 = phi i32 [ 0, %.lr.ph ], [ %23, %lv_text_get_width.exit ]
  %22 = call i32 @lv_text_get_next_line(ptr noundef nonnull %21, ptr noundef %2, i32 noundef %3, i32 noundef %spec.select, ptr noundef null, i32 noundef %6)
  %23 = add i32 %22, %.04759
  %24 = load i32, ptr %9, align 4, !tbaa !16
  %25 = sext i32 %24 to i64
  %26 = add nsw i64 %18, %25
  %27 = icmp ugt i64 %26, 2147483647
  br i1 %27, label %.loopexit, label %28

28:                                               ; preds = %20
  %29 = add i32 %19, %24
  store i32 %29, ptr %9, align 4, !tbaa !16
  %30 = load i8, ptr %21, align 1, !tbaa !3
  %31 = icmp eq i8 %30, 0
  br i1 %31, label %lv_text_get_width.exit, label %32

32:                                               ; preds = %28
  call void @llvm.lifetime.start.p0(i64 4, ptr nonnull %8) #11
  store i32 0, ptr %8, align 4, !tbaa !6
  %.not.i = icmp eq i32 %22, 0
  br i1 %.not.i, label %48, label %.lr.ph.i

.lr.ph.i:                                         ; preds = %32, %lv_text_encoded_letter_next_2.exit.i
  %.122.i = phi i32 [ %.2.i, %lv_text_encoded_letter_next_2.exit.i ], [ 0, %32 ]
  %33 = call i32 @lv_text_utf8_next(ptr noundef nonnull readonly %21, ptr noundef nonnull %8)
  %.not.i.i = icmp eq i32 %33, 0
  br i1 %.not.i.i, label %lv_text_encoded_letter_next_2.exit.i, label %34

34:                                               ; preds = %.lr.ph.i
  %35 = load i32, ptr %8, align 4, !tbaa !6
  %36 = zext i32 %35 to i64
  %37 = getelementptr inbounds nuw i8, ptr %21, i64 %36
  %38 = call i32 @lv_text_utf8_next(ptr noundef nonnull readonly %37, ptr noundef null)
  br label %lv_text_encoded_letter_next_2.exit.i

lv_text_encoded_letter_next_2.exit.i:             ; preds = %34, %.lr.ph.i
  %39 = phi i32 [ %38, %34 ], [ 0, %.lr.ph.i ]
  %40 = call zeroext i16 @lv_font_get_glyph_width(ptr noundef nonnull %2, i32 noundef %33, i32 noundef %39) #11
  %.not20.i = icmp eq i16 %40, 0
  %41 = zext i16 %40 to i32
  %42 = add i32 %.122.i, %3
  %43 = add i32 %42, %41
  %.2.i = select i1 %.not20.i, i32 %.122.i, i32 %43
  %44 = load i32, ptr %8, align 4, !tbaa !6
  %45 = icmp ult i32 %44, %22
  br i1 %45, label %.lr.ph.i, label %._crit_edge.i, !llvm.loop !17

._crit_edge.i:                                    ; preds = %lv_text_encoded_letter_next_2.exit.i
  %46 = icmp sgt i32 %.2.i, 0
  %47 = select i1 %46, i32 %3, i32 0
  %spec.select.i = sub nsw i32 %.2.i, %47
  br label %48

48:                                               ; preds = %._crit_edge.i, %32
  %.016.i = phi i32 [ 0, %32 ], [ %spec.select.i, %._crit_edge.i ]
  call void @llvm.lifetime.end.p0(i64 4, ptr nonnull %8) #11
  br label %lv_text_get_width.exit

lv_text_get_width.exit:                           ; preds = %28, %48
  %.0.i = phi i32 [ %.016.i, %48 ], [ 0, %28 ]
  %49 = load i32, ptr %0, align 4, !tbaa !14
  %. = call i32 @llvm.smax.i32(i32 %.0.i, i32 %49)
  store i32 %., ptr %0, align 4, !tbaa !14
  %50 = zext i32 %23 to i64
  %51 = getelementptr inbounds nuw i8, ptr %1, i64 %50
  %52 = load i8, ptr %51, align 1, !tbaa !3
  %.not55 = icmp eq i8 %52, 0
  br i1 %.not55, label %._crit_edge, label %20, !llvm.loop !18

._crit_edge:                                      ; preds = %lv_text_get_width.exit
  %.not56 = icmp eq i32 %23, 0
  br i1 %.not56, label %._crit_edge.thread, label %53

53:                                               ; preds = %._crit_edge
  %54 = add i32 %23, -1
  %55 = zext i32 %54 to i64
  %56 = getelementptr inbounds nuw i8, ptr %1, i64 %55
  %57 = load i8, ptr %56, align 1, !tbaa !3
  switch i8 %57, label %._crit_edge.thread [
    i8 10, label %58
    i8 13, label %58
  ]

58:                                               ; preds = %53, %53
  %59 = and i32 %14, 65535
  %60 = add nsw i32 %59, %4
  %61 = load i32, ptr %9, align 4, !tbaa !16
  %62 = add nsw i32 %60, %61
  store i32 %62, ptr %9, align 4, !tbaa !16
  br label %._crit_edge.thread

._crit_edge.thread:                               ; preds = %12, %53, %58, %._crit_edge
  %63 = load i32, ptr %9, align 4, !tbaa !16
  %64 = icmp eq i32 %63, 0
  %65 = sub nsw i32 %63, %4
  %66 = and i32 %14, 65535
  %storemerge = select i1 %64, i32 %66, i32 %65
  store i32 %storemerge, ptr %9, align 4, !tbaa !16
  br label %.loopexit

.loopexit:                                        ; preds = %20, %._crit_edge.thread, %7
  ret void
}